target datalayout = "e-m:e-p270:32:32-p271:32:32-p272:64:64-i64:64-i128:128-f80:128-n8:16:32:64-S128"
target triple = "x86_64-pc-linux-gnu"

%struct.Vec_Int_t_ = type { i32, i32, ptr }
%struct.Wla_Man_t_ = type { ptr, ptr, ptr, ptr, ptr, ptr, ptr, ptr, ptr, ptr, i32, i32, i32, i32, i32, i32, i64, i64, i64 }

; Function Attrs: inlinehint nounwind uwtable
define internal ptr @Vec_IntDup(ptr noundef %0) #2 {
  %2 = alloca ptr, align 8
  %3 = alloca ptr, align 8
  store ptr %0, ptr %2, align 8, !tbaa !39
  call void @llvm.lifetime.start.p0(i64 8, ptr %3) #13
  %4 = call noalias ptr @malloc(i64 noundef 16) #15
  store ptr %4, ptr %3, align 8, !tbaa !39
  %5 = load ptr, ptr %2, align 8, !tbaa !39
  %6 = getelementptr inbounds nuw %struct.Vec_Int_t_, ptr %5, i32 0, i32 1
  %7 = load i32, ptr %6, align 4, !tbaa !44
  %8 = load ptr, ptr %3, align 8, !tbaa !39
  %9 = getelementptr inbounds nuw %struct.Vec_Int_t_, ptr %8, i32 0, i32 1
  store i32 %7, ptr %9, align 4, !tbaa !44
  %10 = load ptr, ptr %2, align 8, !tbaa !39
  %11 = getelementptr inbounds nuw %struct.Vec_Int_t_, ptr %10, i32 0, i32 1
  %12 = load i32, ptr %11, align 4, !tbaa !44
  %13 = load ptr, ptr %3, align 8, !tbaa !39
  %14 = getelementptr inbounds nuw %struct.Vec_Int_t_, ptr %13, i32 0, i32 0
  store i32 %12, ptr %14, align 8, !tbaa !45
  %15 = load ptr, ptr %3, align 8, !tbaa !39
  %16 = getelementptr inbounds nuw %struct.Vec_Int_t_, ptr %15, i32 0, i32 0
  %17 = load i32, ptr %16, align 8, !tbaa !45
  %18 = icmp ne i32 %17, 0
  br i1 %18, label %19, label %26

19:                                               ; preds = %1
  %20 = load ptr, ptr %3, align 8, !tbaa !39
  %21 = getelementptr inbounds nuw %struct.Vec_Int_t_, ptr %20, i32 0, i32 0
  %22 = load i32, ptr %21, align 8, !tbaa !45
  %23 = sext i32 %22 to i64
  %24 = mul i64 4, %23
  %25 = call noalias ptr @malloc(i64 noundef %24) #15
  br label %27

26:                                               ; preds = %1
  br label %27

27:                                               ; preds = %26, %19
  %28 = phi ptr [ %25, %19 ], [ null, %26 ]
  %29 = load ptr, ptr %3, align 8, !tbaa !39
  %30 = getelementptr inbounds nuw %struct.Vec_Int_t_, ptr %29, i32 0, i32 2
  store ptr %28, ptr %30, align 8, !tbaa !43
  %31 = load ptr, ptr %3, align 8, !tbaa !39
  %32 = getelementptr inbounds nuw %struct.Vec_Int_t_, ptr %31, i32 0, i32 2
  %33 = load ptr, ptr %32, align 8, !tbaa !43
  %34 = load ptr, ptr %2, align 8, !tbaa !39
  %35 = getelementptr inbounds nuw %struct.Vec_Int_t_, ptr %34, i32 0, i32 2
  %36 = load ptr, ptr %35, align 8, !tbaa !43
  %37 = load ptr, ptr %2, align 8, !tbaa !39
  %38 = getelementptr inbounds nuw %struct.Vec_Int_t_, ptr %37, i32 0, i32 1
  %39 = load i32, ptr %38, align 4, !tbaa !44
  %40 = sext i32 %39 to i64
  %41 = mul i64 4, %40
  call void @llvm.memcpy.p0.p0.i64(ptr align 4 %33, ptr align 4 %36, i64 %41, i1 false)
  %42 = load ptr, ptr %3, align 8, !tbaa !39
  call void @llvm.lifetime.end.p0(i64 8, ptr %3) #13
  ret ptr %42
}

; Function Attrs: nounwind uwtable
define ptr @Wla_ManCreateAbs(ptr noundef %0) #0 {
  %2 = alloca ptr, align 8
  %3 = alloca ptr, align 8
  store ptr %0, ptr %2, align 8, !tbaa !74
  call void @llvm.lifetime.start.p0(i64 8, ptr %3) #13
  %4 = load ptr, ptr %2, align 8, !tbaa !74
  %5 = getelementptr inbounds nuw %struct.Wla_Man_t_, ptr %4, i32 0, i32 3
  %6 = load ptr, ptr %5, align 8, !tbaa !94
  %7 = icmp eq ptr %6, null
  br i1 %7, label %8, label %24

8:                                                ; preds = %1
  %9 = load ptr, ptr %2, align 8, !tbaa !74
  %10 = getelementptr inbounds nuw %struct.Wla_Man_t_, ptr %9, i32 0, i32 0
  %11 = load ptr, ptr %10, align 8, !tbaa !85
  %12 = load ptr, ptr %2, align 8, !tbaa !74
  %13 = getelementptr inbounds nuw %struct.Wla_Man_t_, ptr %12, i32 0, i32 1
  %14 = load ptr, ptr %13, align 8, !tbaa !86
  %15 = call ptr @Wlc_NtkGetBlacks(ptr noundef %11, ptr noundef %14)
  %16 = load ptr, ptr %2, align 8, !tbaa !74
  %17 = getelementptr inbounds nuw %struct.Wla_Man_t_, ptr %16, i32 0, i32 3
  store ptr %15, ptr %17, align 8, !tbaa !94
  %18 = load ptr, ptr %2, align 8, !tbaa !74
  %19 = getelementptr inbounds nuw %struct.Wla_Man_t_, ptr %18, i32 0, i32 3
  %20 = load ptr, ptr %19, align 8, !tbaa !94
  %21 = call ptr @Vec_IntDup(ptr noundef %20)
  %22 = load ptr, ptr %2, align 8, !tbaa !74
  %23 = getelementptr inbounds nuw %struct.Wla_Man_t_, ptr %22, i32 0, i32 4
  store ptr %21, ptr %23, align 8, !tbaa !76
  br label %40

24:                                               ; preds = %1
  %25 = load ptr, ptr %2, align 8, !tbaa !74
  %26 = getelementptr inbounds nuw %struct.Wla_Man_t_, ptr %25, i32 0, i32 0
  %27 = load ptr, ptr %26, align 8, !tbaa !85
  %28 = load ptr, ptr %2, align 8, !tbaa !74
  %29 = getelementptr inbounds nuw %struct.Wla_Man_t_, ptr %28, i32 0, i32 1
  %30 = load ptr, ptr %29, align 8, !tbaa !86
  %31 = load ptr, ptr %2, align 8, !tbaa !74
  %32 = getelementptr inbounds nuw %struct.Wla_Man_t_, ptr %31, i32 0, i32 3
  %33 = load ptr, ptr %2, align 8, !tbaa !74
  %34 = getelementptr inbounds nuw %struct.Wla_Man_t_, ptr %33, i32 0, i32 7
  %35 = load ptr, ptr %34, align 8, !tbaa !83
  %36 = load ptr, ptr %2, align 8, !tbaa !74
  %37 = getelementptr inbounds nuw %struct.Wla_Man_t_, ptr %36, i32 0, i32 4
  %38 = load ptr, ptr %37, align 8, !tbaa !76
  %39 = call i32 @Wlc_NtkUpdateBlacks(ptr noundef %27, ptr noundef %30, ptr noundef %32, ptr noundef %35, ptr noundef %38)
  br label %40

40:                                               ; preds = %24, %8
  %41 = load ptr, ptr %2, align 8, !tbaa !74
  %42 = getelementptr inbounds nuw %struct.Wla_Man_t_, ptr %41, i32 0, i32 0
  %43 = load ptr, ptr %42, align 8, !tbaa !85
  %44 = load ptr, ptr %2, align 8, !tbaa !74
  %45 = getelementptr inbounds nuw %struct.Wla_Man_t_, ptr %44, i32 0, i32 3
  %46 = load ptr, ptr %45, align 8, !tbaa !94
  %47 = call ptr @Wlc_NtkAbs2(ptr noundef %43, ptr noundef %46, ptr noundef null)
  store ptr %47, ptr %3, align 8, !tbaa !13
  %48 = load ptr, ptr %3, align 8, !tbaa !13
  call void @llvm.lifetime.end.p0(i64 8, ptr %3) #13
  ret ptr %48
}