; Function Attrs: nounwind uwtable
define ptr @Wla_ManCreateAbs(ptr noundef captures(none) %0) local_unnamed_addr #1 {
  %2 = getelementptr inbounds nuw i8, ptr %0, i64 24
  %3 = load ptr, ptr %2, align 8, !tbaa !111
  %4 = icmp eq ptr %3, null
  %5 = load ptr, ptr %0, align 8, !tbaa !78
  %6 = getelementptr inbounds nuw i8, ptr %0, i64 8
  %7 = load ptr, ptr %6, align 8, !tbaa !112
  br i1 %4, label %8, label %23

8:                                                ; preds = %1
  %9 = tail call fastcc ptr @Wlc_NtkGetBlacks(ptr noundef %5, ptr noundef %7)
  store ptr %9, ptr %2, align 8, !tbaa !111
  %10 = tail call noalias dereferenceable_or_null(16) ptr @malloc(i64 noundef 16) #27
  %11 = getelementptr inbounds nuw i8, ptr %9, i64 4
  %12 = load i32, ptr %11, align 4, !tbaa !11
  %13 = getelementptr inbounds nuw i8, ptr %10, i64 4
  store i32 %12, ptr %13, align 4, !tbaa !11
  store i32 %12, ptr %10, align 8, !tbaa !41
  %.not.i = icmp eq i32 %12, 0
  br i1 %.not.i, label %Vec_IntDup.exit, label %14

14:                                               ; preds = %8
  %15 = sext i32 %12 to i64
  %16 = shl nsw i64 %15, 2
  %17 = tail call noalias ptr @malloc(i64 noundef %16) #27
  br label %Vec_IntDup.exit

Vec_IntDup.exit:                                  ; preds = %8, %14
  %.pre-phi12.i = phi i64 [ %16, %14 ], [ 0, %8 ]
  %18 = phi ptr [ %17, %14 ], [ null, %8 ]
  %19 = getelementptr inbounds nuw i8, ptr %10, i64 8
  store ptr %18, ptr %19, align 8, !tbaa !14
  %20 = getelementptr inbounds nuw i8, ptr %9, i64 8
  %21 = load ptr, ptr %20, align 8, !tbaa !14
  tail call void @llvm.memcpy.p0.p0.i64(ptr align 4 %18, ptr align 4 %21, i64 %.pre-phi12.i, i1 false)
  %22 = getelementptr inbounds nuw i8, ptr %0, i64 32
  store ptr %10, ptr %22, align 8, !tbaa !67
  br label %28

23:                                               ; preds = %1
  %24 = getelementptr inbounds nuw i8, ptr %0, i64 56
  %25 = load ptr, ptr %24, align 8, !tbaa !76
  %26 = getelementptr inbounds nuw i8, ptr %0, i64 32
  %27 = load ptr, ptr %26, align 8, !tbaa !67
  tail call fastcc void @Wlc_NtkUpdateBlacks(ptr noundef %5, ptr noundef %7, ptr noundef nonnull %2, ptr noundef %25, ptr noundef %27)
  %.pre = load ptr, ptr %2, align 8, !tbaa !111
  br label %28

28:                                               ; preds = %23, %Vec_IntDup.exit
  %29 = phi ptr [ %.pre, %23 ], [ %9, %Vec_IntDup.exit ]
  %30 = load ptr, ptr %0, align 8, !tbaa !78
  %31 = tail call fastcc ptr @Wlc_NtkAbs2(ptr noundef %30, ptr noundef %29)
  ret ptr %31
}